target datalayout = "e-m:e-p270:32:32-p271:32:32-p272:64:64-i64:64-i128:128-f80:128-n8:16:32:64-S128"
target triple = "x86_64-pc-linux-gnu"

%struct.FT_Service_MultiMastersRec_ = type { ptr, ptr, ptr, ptr, ptr, ptr, ptr, ptr, ptr, ptr, ptr, ptr, ptr, ptr, ptr, ptr, ptr, ptr, ptr }
%struct.FT_FaceRec_ = type { i64, i64, i64, i64, i64, ptr, ptr, i32, ptr, i32, ptr, %struct.FT_Generic_, %struct.FT_BBox_, i16, i16, i16, i16, i16, i16, i16, i16, ptr, ptr, ptr, ptr, ptr, ptr, %struct.FT_ListRec_, %struct.FT_Generic_, ptr, ptr }
%struct.FT_BBox_ = type { i64, i64, i64, i64 }
%struct.FT_ListRec_ = type { ptr, ptr }
%struct.FT_Generic_ = type { ptr, ptr }
%struct.FT_Face_InternalRec_ = type { %struct.FT_Matrix_, %struct.FT_Vector_, i32, %struct.FT_ServiceCacheRec_, ptr, i8, i32, i32 }
%struct.FT_Matrix_ = type { i64, i64, i64, i64 }
%struct.FT_Vector_ = type { i64, i64 }
%struct.FT_ServiceCacheRec_ = type { ptr, ptr, ptr, ptr, ptr, ptr }
%struct.FT_ModuleRec_ = type { ptr, ptr, ptr }
%struct.FT_Module_Class_ = type { i64, i64, ptr, i64, i64, ptr, ptr, ptr, ptr }
%struct.FT_Service_MetricsVariationsRec_ = type { ptr, ptr, ptr, ptr, ptr, ptr, ptr, ptr, ptr }

@.str = private unnamed_addr constant [14 x i8] c"multi-masters\00", align 1
@.str.1 = private unnamed_addr constant [19 x i8] c"metrics-variations\00", align 1

; Function Attrs: nounwind uwtable
define internal i32 @ft_face_get_mvar_service(ptr noundef %0, ptr noundef %1) #0 {
  %3 = alloca i32, align 4
  %4 = alloca ptr, align 8
  %5 = alloca ptr, align 8
  %6 = alloca i32, align 4
  %7 = alloca ptr, align 8
  %8 = alloca ptr, align 8
  %9 = alloca ptr, align 8
  store ptr %0, ptr %4, align 8
  store ptr %1, ptr %5, align 8
  %10 = load ptr, ptr %5, align 8
  store ptr null, ptr %10, align 8
  %11 = load ptr, ptr %4, align 8
  %12 = icmp ne ptr %11, null
  br i1 %12, label %14, label %13

13:                                               ; preds = %2
  store i32 35, ptr %3, align 4
  br label %80

14:                                               ; preds = %2
  store i32 6, ptr %6, align 4
  %15 = load ptr, ptr %4, align 8
  %16 = getelementptr inbounds %struct.FT_FaceRec_, ptr %15, i32 0, i32 2
  %17 = load i64, ptr %16, align 8
  %18 = and i64 %17, 256
  %19 = icmp ne i64 %18, 0
  br i1 %19, label %20, label %78

20:                                               ; preds = %14
  br label %21

21:                                               ; preds = %20
  %22 = load ptr, ptr %4, align 8
  %23 = getelementptr inbounds %struct.FT_FaceRec_, ptr %22, i32 0, i32 30
  %24 = load ptr, ptr %23, align 8
  %25 = getelementptr inbounds %struct.FT_Face_InternalRec_, ptr %24, i32 0, i32 3
  %26 = getelementptr inbounds %struct.FT_ServiceCacheRec_, ptr %25, i32 0, i32 2
  %27 = load ptr, ptr %26, align 8
  store ptr %27, ptr %7, align 8
  %28 = load ptr, ptr %7, align 8
  %29 = icmp eq ptr %28, inttoptr (i64 -2 to ptr)
  br i1 %29, label %30, label %31

30:                                               ; preds = %21
  store ptr null, ptr %7, align 8
  br label %69

31:                                               ; preds = %21
  %32 = load ptr, ptr %7, align 8
  %33 = icmp eq ptr %32, null
  br i1 %33, label %34, label %68

34:                                               ; preds = %31
  br label %35

35:                                               ; preds = %34
  %36 = load ptr, ptr %4, align 8
  %37 = getelementptr inbounds %struct.FT_FaceRec_, ptr %36, i32 0, i32 24
  %38 = load ptr, ptr %37, align 8
  store ptr %38, ptr %8, align 8
  store ptr null, ptr %9, align 8
  %39 = load ptr, ptr %8, align 8
  %40 = getelementptr inbounds %struct.FT_ModuleRec_, ptr %39, i32 0, i32 0
  %41 = load ptr, ptr %40, align 8
  %42 = getelementptr inbounds %struct.FT_Module_Class_, ptr %41, i32 0, i32 8
  %43 = load ptr, ptr %42, align 8
  %44 = icmp ne ptr %43, null
  br i1 %44, label %45, label %53

45:                                               ; preds = %35
  %46 = load ptr, ptr %8, align 8
  %47 = getelementptr inbounds %struct.FT_ModuleRec_, ptr %46, i32 0, i32 0
  %48 = load ptr, ptr %47, align 8
  %49 = getelementptr inbounds %struct.FT_Module_Class_, ptr %48, i32 0, i32 8
  %50 = load ptr, ptr %49, align 8
  %51 = load ptr, ptr %8, align 8
  %52 = call ptr %50(ptr noundef %51, ptr noundef @.str.1)
  store ptr %52, ptr %9, align 8
  br label %53

53:                                               ; preds = %45, %35
  %54 = load ptr, ptr %9, align 8
  store ptr %54, ptr %7, align 8
  br label %55

55:                                               ; preds = %53
  %56 = load ptr, ptr %7, align 8
  %57 = icmp ne ptr %56, null
  br i1 %57, label %58, label %60

58:                                               ; preds = %55
  %59 = load ptr, ptr %7, align 8
  br label %61

60:                                               ; preds = %55
  br label %61

61:                                               ; preds = %60, %58
  %62 = phi ptr [ %59, %58 ], [ inttoptr (i64 -2 to ptr), %60 ]
  %63 = load ptr, ptr %4, align 8
  %64 = getelementptr inbounds %struct.FT_FaceRec_, ptr %63, i32 0, i32 30
  %65 = load ptr, ptr %64, align 8
  %66 = getelementptr inbounds %struct.FT_Face_InternalRec_, ptr %65, i32 0, i32 3
  %67 = getelementptr inbounds %struct.FT_ServiceCacheRec_, ptr %66, i32 0, i32 2
  store ptr %62, ptr %67, align 8
  br label %68

68:                                               ; preds = %61, %31
  br label %69

69:                                               ; preds = %68, %30
  %70 = load ptr, ptr %7, align 8
  %71 = load ptr, ptr %5, align 8
  store ptr %70, ptr %71, align 8
  br label %72

72:                                               ; preds = %69
  %73 = load ptr, ptr %5, align 8
  %74 = load ptr, ptr %73, align 8
  %75 = icmp ne ptr %74, null
  br i1 %75, label %76, label %77

76:                                               ; preds = %72
  store i32 0, ptr %6, align 4
  br label %77

77:                                               ; preds = %76, %72
  br label %78

78:                                               ; preds = %77, %14
  %79 = load i32, ptr %6, align 4
  store i32 %79, ptr %3, align 4
  br label %80

80:                                               ; preds = %78, %13
  %81 = load i32, ptr %3, align 4
  ret i32 %81
}

; Function Attrs: nounwind uwtable
define internal i32 @ft_face_get_mm_service(ptr noundef %0, ptr noundef %1) #0 {
  %3 = alloca i32, align 4
  %4 = alloca ptr, align 8
  %5 = alloca ptr, align 8
  %6 = alloca i32, align 4
  %7 = alloca ptr, align 8
  %8 = alloca ptr, align 8
  %9 = alloca ptr, align 8
  store ptr %0, ptr %4, align 8
  store ptr %1, ptr %5, align 8
  %10 = load ptr, ptr %5, align 8
  store ptr null, ptr %10, align 8
  %11 = load ptr, ptr %4, align 8
  %12 = icmp ne ptr %11, null
  br i1 %12, label %14, label %13

13:                                               ; preds = %2
  store i32 35, ptr %3, align 4
  br label %80

14:                                               ; preds = %2
  store i32 6, ptr %6, align 4
  %15 = load ptr, ptr %4, align 8
  %16 = getelementptr inbounds %struct.FT_FaceRec_, ptr %15, i32 0, i32 2
  %17 = load i64, ptr %16, align 8
  %18 = and i64 %17, 256
  %19 = icmp ne i64 %18, 0
  br i1 %19, label %20, label %78

20:                                               ; preds = %14
  br label %21

21:                                               ; preds = %20
  %22 = load ptr, ptr %4, align 8
  %23 = getelementptr inbounds %struct.FT_FaceRec_, ptr %22, i32 0, i32 30
  %24 = load ptr, ptr %23, align 8
  %25 = getelementptr inbounds %struct.FT_Face_InternalRec_, ptr %24, i32 0, i32 3
  %26 = getelementptr inbounds %struct.FT_ServiceCacheRec_, ptr %25, i32 0, i32 1
  %27 = load ptr, ptr %26, align 8
  store ptr %27, ptr %7, align 8
  %28 = load ptr, ptr %7, align 8
  %29 = icmp eq ptr %28, inttoptr (i64 -2 to ptr)
  br i1 %29, label %30, label %31

30:                                               ; preds = %21
  store ptr null, ptr %7, align 8
  br label %69

31:                                               ; preds = %21
  %32 = load ptr, ptr %7, align 8
  %33 = icmp eq ptr %32, null
  br i1 %33, label %34, label %68

34:                                               ; preds = %31
  br label %35

35:                                               ; preds = %34
  %36 = load ptr, ptr %4, align 8
  %37 = getelementptr inbounds %struct.FT_FaceRec_, ptr %36, i32 0, i32 24
  %38 = load ptr, ptr %37, align 8
  store ptr %38, ptr %8, align 8
  store ptr null, ptr %9, align 8
  %39 = load ptr, ptr %8, align 8
  %40 = getelementptr inbounds %struct.FT_ModuleRec_, ptr %39, i32 0, i32 0
  %41 = load ptr, ptr %40, align 8
  %42 = getelementptr inbounds %struct.FT_Module_Class_, ptr %41, i32 0, i32 8
  %43 = load ptr, ptr %42, align 8
  %44 = icmp ne ptr %43, null
  br i1 %44, label %45, label %53

45:                                               ; preds = %35
  %46 = load ptr, ptr %8, align 8
  %47 = getelementptr inbounds %struct.FT_ModuleRec_, ptr %46, i32 0, i32 0
  %48 = load ptr, ptr %47, align 8
  %49 = getelementptr inbounds %struct.FT_Module_Class_, ptr %48, i32 0, i32 8
  %50 = load ptr, ptr %49, align 8
  %51 = load ptr, ptr %8, align 8
  %52 = call ptr %50(ptr noundef %51, ptr noundef @.str)
  store ptr %52, ptr %9, align 8
  br label %53

53:                                               ; preds = %45, %35
  %54 = load ptr, ptr %9, align 8
  store ptr %54, ptr %7, align 8
  br label %55

55:                                               ; preds = %53
  %56 = load ptr, ptr %7, align 8
  %57 = icmp ne ptr %56, null
  br i1 %57, label %58, label %60

58:                                               ; preds = %55
  %59 = load ptr, ptr %7, align 8
  br label %61

60:                                               ; preds = %55
  br label %61

61:                                               ; preds = %60, %58
  %62 = phi ptr [ %59, %58 ], [ inttoptr (i64 -2 to ptr), %60 ]
  %63 = load ptr, ptr %4, align 8
  %64 = getelementptr inbounds %struct.FT_FaceRec_, ptr %63, i32 0, i32 30
  %65 = load ptr, ptr %64, align 8
  %66 = getelementptr inbounds %struct.FT_Face_InternalRec_, ptr %65, i32 0, i32 3
  %67 = getelementptr inbounds %struct.FT_ServiceCacheRec_, ptr %66, i32 0, i32 1
  store ptr %62, ptr %67, align 8
  br label %68

68:                                               ; preds = %61, %31
  br label %69

69:                                               ; preds = %68, %30
  %70 = load ptr, ptr %7, align 8
  %71 = load ptr, ptr %5, align 8
  store ptr %70, ptr %71, align 8
  br label %72

72:                                               ; preds = %69
  %73 = load ptr, ptr %5, align 8
  %74 = load ptr, ptr %73, align 8
  %75 = icmp ne ptr %74, null
  br i1 %75, label %76, label %77

76:                                               ; preds = %72
  store i32 0, ptr %6, align 4
  br label %77

77:                                               ; preds = %76, %72
  br label %78

78:                                               ; preds = %77, %14
  %79 = load i32, ptr %6, align 4
  store i32 %79, ptr %3, align 4
  br label %80

80:                                               ; preds = %78, %13
  %81 = load i32, ptr %3, align 4
  ret i32 %81
}

; Function Attrs: nounwind uwtable
define i32 @FT_Set_Named_Instance(ptr noundef %0, i32 noundef %1) #0 {
  %3 = alloca i32, align 4
  %4 = alloca ptr, align 8
  %5 = alloca i32, align 4
  %6 = alloca i32, align 4
  %7 = alloca ptr, align 8
  %8 = alloca ptr, align 8
  %9 = alloca i8, align 1
  store ptr %0, ptr %4, align 8
  store i32 %1, ptr %5, align 4
  store ptr null, ptr %7, align 8
  store ptr null, ptr %8, align 8
  %10 = load ptr, ptr %4, align 8
  %11 = call i32 @ft_face_get_mm_service(ptr noundef %10, ptr noundef %7)
  store i32 %11, ptr %6, align 4
  %12 = load i32, ptr %6, align 4
  %13 = icmp ne i32 %12, 0
  br i1 %13, label %93, label %14

14:                                               ; preds = %2
  store i32 6, ptr %6, align 4
  %15 = load ptr, ptr %7, align 8
  %16 = getelementptr inbounds %struct.FT_Service_MultiMastersRec_, ptr %15, i32 0, i32 7
  %17 = load ptr, ptr %16, align 8
  %18 = icmp ne ptr %17, null
  br i1 %18, label %19, label %26

19:                                               ; preds = %14
  %20 = load ptr, ptr %7, align 8
  %21 = getelementptr inbounds %struct.FT_Service_MultiMastersRec_, ptr %20, i32 0, i32 7
  %22 = load ptr, ptr %21, align 8
  %23 = load ptr, ptr %4, align 8
  %24 = load i32, ptr %5, align 4
  %25 = call i32 %22(ptr noundef %23, i32 noundef %24)
  store i32 %25, ptr %6, align 4
  br label %26

26:                                               ; preds = %19, %14
  %27 = load i32, ptr %6, align 4
  %28 = icmp ne i32 %27, 0
  br i1 %28, label %29, label %32

29:                                               ; preds = %26
  %30 = load i32, ptr %6, align 4
  %31 = icmp eq i32 %30, -1
  br i1 %31, label %32, label %88

32:                                               ; preds = %29, %26
  %33 = load ptr, ptr %4, align 8
  %34 = getelementptr inbounds %struct.FT_FaceRec_, ptr %33, i32 0, i32 2
  %35 = load i64, ptr %34, align 8
  %36 = and i64 %35, 32768
  %37 = icmp ne i64 %36, 0
  %38 = xor i1 %37, true
  %39 = xor i1 %38, true
  %40 = zext i1 %39 to i32
  %41 = trunc i32 %40 to i8
  store i8 %41, ptr %9, align 1
  %42 = load ptr, ptr %4, align 8
  %43 = getelementptr inbounds %struct.FT_FaceRec_, ptr %42, i32 0, i32 2
  %44 = load i64, ptr %43, align 8
  %45 = and i64 %44, -32769
  store i64 %45, ptr %43, align 8
  %46 = load i32, ptr %5, align 4
  %47 = shl i32 %46, 16
  %48 = zext i32 %47 to i64
  %49 = load ptr, ptr %4, align 8
  %50 = getelementptr inbounds %struct.FT_FaceRec_, ptr %49, i32 0, i32 1
  %51 = load i64, ptr %50, align 8
  %52 = and i64 %51, 65535
  %53 = or i64 %48, %52
  %54 = load ptr, ptr %4, align 8
  %55 = getelementptr inbounds %struct.FT_FaceRec_, ptr %54, i32 0, i32 1
  store i64 %53, ptr %55, align 8
  %56 = load ptr, ptr %7, align 8
  %57 = getelementptr inbounds %struct.FT_Service_MultiMastersRec_, ptr %56, i32 0, i32 11
  %58 = load ptr, ptr %57, align 8
  %59 = icmp ne ptr %58, null
  br i1 %59, label %60, label %87

60:                                               ; preds = %32
  %61 = load i32, ptr %6, align 4
  %62 = icmp eq i32 %61, -1
  br i1 %62, label %63, label %81

63:                                               ; preds = %60
  %64 = load i8, ptr %9, align 1
  %65 = zext i8 %64 to i32
  %66 = load ptr, ptr %4, align 8
  %67 = getelementptr inbounds %struct.FT_FaceRec_, ptr %66, i32 0, i32 2
  %68 = load i64, ptr %67, align 8
  %69 = and i64 %68, 32768
  %70 = icmp ne i64 %69, 0
  %71 = xor i1 %70, true
  %72 = xor i1 %71, true
  %73 = zext i1 %72 to i32
  %74 = icmp ne i32 %65, %73
  br i1 %74, label %75, label %80

75:                                               ; preds = %63
  %76 = load ptr, ptr %7, align 8
  %77 = getelementptr inbounds %struct.FT_Service_MultiMastersRec_, ptr %76, i32 0, i32 11
  %78 = load ptr, ptr %77, align 8
  %79 = load ptr, ptr %4, align 8
  call void %78(ptr noundef %79)
  br label %80

80:                                               ; preds = %75, %63
  br label %86

81:                                               ; preds = %60
  %82 = load ptr, ptr %7, align 8
  %83 = getelementptr inbounds %struct.FT_Service_MultiMastersRec_, ptr %82, i32 0, i32 11
  %84 = load ptr, ptr %83, align 8
  %85 = load ptr, ptr %4, align 8
  call void %84(ptr noundef %85)
  br label %86

86:                                               ; preds = %81, %80
  br label %87

87:                                               ; preds = %86, %32
  br label %88

88:                                               ; preds = %87, %29
  %89 = load i32, ptr %6, align 4
  %90 = icmp eq i32 %89, -1
  br i1 %90, label %91, label %92

91:                                               ; preds = %88
  store i32 0, ptr %3, align 4
  br label %135

92:                                               ; preds = %88
  br label %93

93:                                               ; preds = %92, %2
  %94 = load i32, ptr %6, align 4
  %95 = icmp ne i32 %94, 0
  br i1 %95, label %112, label %96

96:                                               ; preds = %93
  %97 = load ptr, ptr %4, align 8
  %98 = call i32 @ft_face_get_mvar_service(ptr noundef %97, ptr noundef %8)
  %99 = load ptr, ptr %8, align 8
  %100 = icmp ne ptr %99, null
  br i1 %100, label %101, label %111

101:                                              ; preds = %96
  %102 = load ptr, ptr %8, align 8
  %103 = getelementptr inbounds %struct.FT_Service_MetricsVariationsRec_, ptr %102, i32 0, i32 7
  %104 = load ptr, ptr %103, align 8
  %105 = icmp ne ptr %104, null
  br i1 %105, label %106, label %111

106:                                              ; preds = %101
  %107 = load ptr, ptr %8, align 8
  %108 = getelementptr inbounds %struct.FT_Service_MetricsVariationsRec_, ptr %107, i32 0, i32 7
  %109 = load ptr, ptr %108, align 8
  %110 = load ptr, ptr %4, align 8
  call void %109(ptr noundef %110)
  br label %111

111:                                              ; preds = %106, %101, %96
  br label %112

112:                                              ; preds = %111, %93
  %113 = load i32, ptr %6, align 4
  %114 = icmp ne i32 %113, 0
  br i1 %114, label %133, label %115

115:                                              ; preds = %112
  %116 = load ptr, ptr %4, align 8
  %117 = getelementptr inbounds %struct.FT_FaceRec_, ptr %116, i32 0, i32 28
  %118 = getelementptr inbounds %struct.FT_Generic_, ptr %117, i32 0, i32 1
  %119 = load ptr, ptr %118, align 8
  %120 = icmp ne ptr %119, null
  br i1 %120, label %121, label %133

121:                                              ; preds = %115
  %122 = load ptr, ptr %4, align 8
  %123 = getelementptr inbounds %struct.FT_FaceRec_, ptr %122, i32 0, i32 28
  %124 = getelementptr inbounds %struct.FT_Generic_, ptr %123, i32 0, i32 1
  %125 = load ptr, ptr %124, align 8
  %126 = load ptr, ptr %4, align 8
  %127 = getelementptr inbounds %struct.FT_FaceRec_, ptr %126, i32 0, i32 28
  %128 = getelementptr inbounds %struct.FT_Generic_, ptr %127, i32 0, i32 0
  %129 = load ptr, ptr %128, align 8
  call void %125(ptr noundef %129)
  %130 = load ptr, ptr %4, align 8
  %131 = getelementptr inbounds %struct.FT_FaceRec_, ptr %130, i32 0, i32 28
  %132 = getelementptr inbounds %struct.FT_Generic_, ptr %131, i32 0, i32 0
  store ptr null, ptr %132, align 8
  br label %133

133:                                              ; preds = %121, %115, %112
  %134 = load i32, ptr %6, align 4
  store i32 %134, ptr %3, align 4
  br label %135

135:                                              ; preds = %133, %91
  %136 = load i32, ptr %3, align 4
  ret i32 %136
}