; Function Attrs: nounwind uwtable
define i32 @FT_Set_Named_Instance(ptr noundef %0, i32 noundef %1) local_unnamed_addr #0 {
  %.not.i = icmp eq ptr %0, null
  br i1 %.not.i, label %.critedge, label %3

3:                                                ; preds = %2
  %4 = getelementptr inbounds i8, ptr %0, i64 16
  %5 = load i64, ptr %4, align 8
  %6 = and i64 %5, 256
  %.not24.i = icmp eq i64 %6, 0
  br i1 %.not24.i, label %.critedge, label %7

7:                                                ; preds = %3
  %8 = getelementptr inbounds i8, ptr %0, i64 240
  %9 = load ptr, ptr %8, align 8
  %10 = getelementptr inbounds i8, ptr %9, i64 64
  %11 = load ptr, ptr %10, align 8
  %magicptr.i = ptrtoint ptr %11 to i64
  switch i64 %magicptr.i, label %.fold.split.i [
    i64 -2, label %.critedge
    i64 0, label %12
  ]

12:                                               ; preds = %7
  %13 = getelementptr inbounds i8, ptr %0, i64 176
  %14 = load ptr, ptr %13, align 8
  %15 = load ptr, ptr %14, align 8
  %16 = getelementptr inbounds i8, ptr %15, i64 64
  %17 = load ptr, ptr %16, align 8
  %.not25.i = icmp eq ptr %17, null
  br i1 %.not25.i, label %20, label %18

18:                                               ; preds = %12
  %19 = tail call ptr %17(ptr noundef nonnull %14, ptr noundef nonnull @.str) #3
  %.pre.i = load ptr, ptr %8, align 8
  br label %20

20:                                               ; preds = %18, %12
  %21 = phi ptr [ %.pre.i, %18 ], [ %9, %12 ]
  %.0.i = phi ptr [ %19, %18 ], [ null, %12 ]
  %.not26.i = icmp eq ptr %.0.i, null
  %22 = select i1 %.not26.i, ptr inttoptr (i64 -2 to ptr), ptr %.0.i
  %23 = getelementptr inbounds i8, ptr %21, i64 64
  store ptr %22, ptr %23, align 8
  br label %.fold.split.i

.fold.split.i:                                    ; preds = %7, %20
  %.019.i = phi ptr [ %.0.i, %20 ], [ %11, %7 ]
  %.not27.i = icmp eq ptr %.019.i, null
  br i1 %.not27.i, label %.critedge, label %ft_face_get_mm_service.exit

ft_face_get_mm_service.exit:                      ; preds = %.fold.split.i
  %24 = getelementptr inbounds i8, ptr %.019.i, i64 56
  %25 = load ptr, ptr %24, align 8
  %.not34 = icmp eq ptr %25, null
  br i1 %.not34, label %.critedge, label %26

26:                                               ; preds = %ft_face_get_mm_service.exit
  %27 = tail call i32 %25(ptr noundef nonnull %0, i32 noundef %1) #3
  %28 = icmp eq i32 %27, -1
  %29 = add i32 %27, 1
  %or.cond = icmp ult i32 %29, 2
  br i1 %or.cond, label %30, label %.critedge

30:                                               ; preds = %26
  %31 = load i64, ptr %4, align 8
  %32 = and i64 %31, -32769
  store i64 %32, ptr %4, align 8
  %33 = shl i32 %1, 16
  %34 = zext i32 %33 to i64
  %35 = getelementptr inbounds i8, ptr %0, i64 8
  %36 = load i64, ptr %35, align 8
  %37 = and i64 %36, 65535
  %38 = or disjoint i64 %37, %34
  store i64 %38, ptr %35, align 8
  %39 = getelementptr inbounds i8, ptr %.019.i, i64 88
  %40 = load ptr, ptr %39, align 8
  %.not35 = icmp eq ptr %40, null
  br i1 %.not35, label %45, label %41

41:                                               ; preds = %30
  br i1 %28, label %42, label %.thread66.thread

42:                                               ; preds = %41
  %43 = and i64 %31, 32768
  %.not36 = icmp eq i64 %43, 0
  br i1 %.not36, label %.critedge, label %44

44:                                               ; preds = %42
  tail call void %40(ptr noundef nonnull %0) #3
  br label %.critedge

.thread66.thread:                                 ; preds = %41
  tail call void %40(ptr noundef nonnull %0) #3
  br label %.thread66.thread86

45:                                               ; preds = %30
  br i1 %28, label %.critedge, label %.thread66.thread86

.thread66.thread86:                               ; preds = %45, %.thread66.thread
  %46 = load i64, ptr %4, align 8
  %47 = and i64 %46, 256
  %.not24.i42 = icmp eq i64 %47, 0
  br i1 %.not24.i42, label %ft_face_get_mvar_service.exit.thread, label %48

48:                                               ; preds = %.thread66.thread86
  %49 = load ptr, ptr %8, align 8
  %50 = getelementptr inbounds i8, ptr %49, i64 72
  %51 = load ptr, ptr %50, align 8
  %magicptr.i43 = ptrtoint ptr %51 to i64
  switch i64 %magicptr.i43, label %ft_face_get_mvar_service.exit [
    i64 -2, label %ft_face_get_mvar_service.exit.thread
    i64 0, label %52
  ]

52:                                               ; preds = %48
  %53 = getelementptr inbounds i8, ptr %0, i64 176
  %54 = load ptr, ptr %53, align 8
  %55 = load ptr, ptr %54, align 8
  %56 = getelementptr inbounds i8, ptr %55, i64 64
  %57 = load ptr, ptr %56, align 8
  %.not25.i44 = icmp eq ptr %57, null
  br i1 %.not25.i44, label %60, label %58

58:                                               ; preds = %52
  %59 = tail call ptr %57(ptr noundef nonnull %54, ptr noundef nonnull @.str.1) #3
  %.pre.i45 = load ptr, ptr %8, align 8
  br label %60

60:                                               ; preds = %58, %52
  %61 = phi ptr [ %.pre.i45, %58 ], [ %49, %52 ]
  %.0.i46 = phi ptr [ %59, %58 ], [ null, %52 ]
  %.not26.i47 = icmp eq ptr %.0.i46, null
  %62 = select i1 %.not26.i47, ptr inttoptr (i64 -2 to ptr), ptr %.0.i46
  %63 = getelementptr inbounds i8, ptr %61, i64 72
  store ptr %62, ptr %63, align 8
  br label %ft_face_get_mvar_service.exit

ft_face_get_mvar_service.exit:                    ; preds = %48, %60
  %.019.i48 = phi ptr [ %.0.i46, %60 ], [ %51, %48 ]
  %.not38 = icmp eq ptr %.019.i48, null
  br i1 %.not38, label %ft_face_get_mvar_service.exit.thread, label %64

64:                                               ; preds = %ft_face_get_mvar_service.exit
  %65 = getelementptr inbounds i8, ptr %.019.i48, i64 56
  %66 = load ptr, ptr %65, align 8
  %.not39 = icmp eq ptr %66, null
  br i1 %.not39, label %ft_face_get_mvar_service.exit.thread, label %67

67:                                               ; preds = %64
  tail call void %66(ptr noundef nonnull %0) #3
  br label %ft_face_get_mvar_service.exit.thread

ft_face_get_mvar_service.exit.thread:             ; preds = %48, %.thread66.thread86, %67, %64, %ft_face_get_mvar_service.exit
  %68 = getelementptr inbounds i8, ptr %0, i64 224
  %69 = load ptr, ptr %68, align 8
  %.not40 = icmp eq ptr %69, null
  br i1 %.not40, label %.critedge, label %70

70:                                               ; preds = %ft_face_get_mvar_service.exit.thread
  %71 = getelementptr inbounds i8, ptr %0, i64 216
  %72 = load ptr, ptr %71, align 8
  tail call void %69(ptr noundef %72) #3
  store ptr null, ptr %71, align 8
  br label %.critedge

.critedge:                                        ; preds = %26, %ft_face_get_mm_service.exit, %7, %44, %42, %2, %3, %.fold.split.i, %ft_face_get_mvar_service.exit.thread, %70, %45
  %.0 = phi i32 [ 0, %45 ], [ 0, %70 ], [ 0, %ft_face_get_mvar_service.exit.thread ], [ 6, %3 ], [ 35, %2 ], [ 6, %.fold.split.i ], [ 0, %42 ], [ 0, %44 ], [ 6, %7 ], [ 6, %ft_face_get_mm_service.exit ], [ %27, %26 ]
  ret i32 %.0
}